; Function Attrs: null_pointer_is_valid sspstrong uwtable
define ptr @prefs_find_preference(ptr noundef readonly captures(address_is_null) %0, ptr noundef %1) local_unnamed_addr #1 {
  %3 = alloca %struct.find_pref_arg_t, align 8
  call void @llvm.lifetime.start.p0(i64 24, ptr nonnull %3) #25
  %4 = icmp eq ptr %0, null
  br i1 %4, label %prefs_find_preference_with_submodule.exit, label %5

5:                                                ; preds = %2
  %6 = getelementptr inbounds nuw i8, ptr %0, i64 40
  %7 = load ptr, ptr %6, align 8
  %8 = tail call ptr @g_list_find_custom(ptr noundef %7, ptr noundef %1, ptr noundef nonnull @preference_match)
  %9 = getelementptr inbounds nuw i8, ptr %3, i64 16
  store ptr null, ptr %9, align 8
  %10 = icmp eq ptr %8, null
  br i1 %10, label %11, label %.thread.i

11:                                               ; preds = %5
  store ptr null, ptr %3, align 8
  %12 = getelementptr inbounds nuw i8, ptr %0, i64 56
  %13 = load ptr, ptr %12, align 8
  %.not.i = icmp eq ptr %13, null
  br i1 %.not.i, label %prefs_find_preference_with_submodule.exit, label %14

14:                                               ; preds = %11
  %15 = getelementptr inbounds nuw i8, ptr %3, i64 8
  store ptr %1, ptr %15, align 8
  %16 = call zeroext i1 @wmem_tree_foreach(ptr noundef nonnull %13, ptr noundef nonnull @module_find_pref_cb, ptr noundef nonnull %3)
  %.pr.i = load ptr, ptr %3, align 8
  %17 = icmp eq ptr %.pr.i, null
  br i1 %17, label %prefs_find_preference_with_submodule.exit, label %.thread.i

.thread.i:                                        ; preds = %14, %5
  %.020.i = phi ptr [ %.pr.i, %14 ], [ %8, %5 ]
  %18 = load ptr, ptr %.020.i, align 8
  br label %prefs_find_preference_with_submodule.exit

prefs_find_preference_with_submodule.exit:        ; preds = %2, %11, %14, %.thread.i
  %.013.i = phi ptr [ %18, %.thread.i ], [ null, %2 ], [ null, %14 ], [ null, %11 ]
  call void @llvm.lifetime.end.p0(i64 24, ptr nonnull %3) #25
  ret ptr %.013.i
}